target datalayout = "e-m:e-p270:32:32-p271:32:32-p272:64:64-i64:64-i128:128-f80:128-n8:16:32:64-S128"
target triple = "x86_64-pc-linux-gnu"

%struct.Aig_Man_t_ = type { ptr, ptr, ptr, ptr, ptr, ptr, ptr, %struct.Aig_Obj_t_, i32, i32, i32, i32, i32, i32, [7 x i32], i32, ptr, i32, ptr, i32, ptr, i32, i32, i32, ptr, i32, i32, i32, i32, i32, ptr, ptr, i32, ptr, ptr, i32, ptr, ptr, i32, i32, i32, ptr, ptr, ptr, ptr, ptr, ptr, ptr, ptr, ptr, ptr, ptr, ptr, ptr, ptr, i32, ptr, ptr, ptr, ptr, i32, i64, i64, i64, ptr, ptr }
%struct.Aig_Obj_t_ = type { %union.anon, ptr, ptr, i64, i32, i32, %union.anon.0 }
%union.anon = type { ptr }
%union.anon.0 = type { ptr }
%struct.Vec_Ptr_t_ = type { i32, i32, ptr }

; Function Attrs: nounwind uwtable
define internal ptr @Vec_PtrEntry(ptr noundef %0, i32 noundef %1) #0 {
  %3 = alloca ptr, align 8
  %4 = alloca i32, align 4
  store ptr %0, ptr %3, align 8
  store i32 %1, ptr %4, align 4
  %5 = load ptr, ptr %3, align 8
  %6 = getelementptr inbounds %struct.Vec_Ptr_t_, ptr %5, i32 0, i32 2
  %7 = load ptr, ptr %6, align 8
  %8 = load i32, ptr %4, align 4
  %9 = sext i32 %8 to i64
  %10 = getelementptr inbounds ptr, ptr %7, i64 %9
  %11 = load ptr, ptr %10, align 8
  ret ptr %11
}

; Function Attrs: nounwind uwtable
define internal i32 @Vec_PtrSize(ptr noundef %0) #0 {
  %2 = alloca ptr, align 8
  store ptr %0, ptr %2, align 8
  %3 = load ptr, ptr %2, align 8
  %4 = getelementptr inbounds %struct.Vec_Ptr_t_, ptr %3, i32 0, i32 1
  %5 = load i32, ptr %4, align 4
  ret i32 %5
}

; Function Attrs: nounwind uwtable
define i32 @Aig_ManCountReprs(ptr noundef %0) #0 {
  %2 = alloca i32, align 4
  %3 = alloca ptr, align 8
  %4 = alloca ptr, align 8
  %5 = alloca i32, align 4
  %6 = alloca i32, align 4
  store ptr %0, ptr %3, align 8
  store i32 0, ptr %6, align 4
  %7 = load ptr, ptr %3, align 8
  %8 = getelementptr inbounds %struct.Aig_Man_t_, ptr %7, i32 0, i32 31
  %9 = load ptr, ptr %8, align 8
  %10 = icmp eq ptr %9, null
  br i1 %10, label %11, label %12

11:                                               ; preds = %1
  store i32 0, ptr %2, align 4
  br label %50

12:                                               ; preds = %1
  store i32 0, ptr %5, align 4
  br label %13

13:                                               ; preds = %45, %12
  %14 = load i32, ptr %5, align 4
  %15 = load ptr, ptr %3, align 8
  %16 = getelementptr inbounds %struct.Aig_Man_t_, ptr %15, i32 0, i32 4
  %17 = load ptr, ptr %16, align 8
  %18 = call i32 @Vec_PtrSize(ptr noundef %17)
  %19 = icmp slt i32 %14, %18
  br i1 %19, label %20, label %26

20:                                               ; preds = %13
  %21 = load ptr, ptr %3, align 8
  %22 = getelementptr inbounds %struct.Aig_Man_t_, ptr %21, i32 0, i32 4
  %23 = load ptr, ptr %22, align 8
  %24 = load i32, ptr %5, align 4
  %25 = call ptr @Vec_PtrEntry(ptr noundef %23, i32 noundef %24)
  store ptr %25, ptr %4, align 8
  br label %26

26:                                               ; preds = %20, %13
  %27 = phi i1 [ false, %13 ], [ true, %20 ]
  br i1 %27, label %28, label %48

28:                                               ; preds = %26
  %29 = load ptr, ptr %4, align 8
  %30 = icmp eq ptr %29, null
  br i1 %30, label %31, label %32

31:                                               ; preds = %28
  br label %44

32:                                               ; preds = %28
  %33 = load ptr, ptr %3, align 8
  %34 = getelementptr inbounds %struct.Aig_Man_t_, ptr %33, i32 0, i32 31
  %35 = load ptr, ptr %34, align 8
  %36 = load i32, ptr %5, align 4
  %37 = sext i32 %36 to i64
  %38 = getelementptr inbounds ptr, ptr %35, i64 %37
  %39 = load ptr, ptr %38, align 8
  %40 = icmp ne ptr %39, null
  %41 = zext i1 %40 to i32
  %42 = load i32, ptr %6, align 4
  %43 = add nsw i32 %42, %41
  store i32 %43, ptr %6, align 4
  br label %44

44:                                               ; preds = %32, %31
  br label %45

45:                                               ; preds = %44
  %46 = load i32, ptr %5, align 4
  %47 = add nsw i32 %46, 1
  store i32 %47, ptr %5, align 4
  br label %13, !llvm.loop !13

48:                                               ; preds = %26
  %49 = load i32, ptr %6, align 4
  store i32 %49, ptr %2, align 4
  br label %50

50:                                               ; preds = %48, %11
  %51 = load i32, ptr %2, align 4
  ret i32 %51
}