; Function Attrs: nofree norecurse nosync nounwind memory(read, inaccessiblemem: none) uwtable
define i32 @Aig_ManCountReprs(ptr noundef readonly captures(none) %0) local_unnamed_addr #10 {
  %2 = getelementptr inbounds nuw i8, ptr %0, i64 256
  %3 = load ptr, ptr %2, align 8
  %4 = icmp eq ptr %3, null
  br i1 %4, label %.critedge, label %.preheader

.preheader:                                       ; preds = %1
  %5 = getelementptr inbounds nuw i8, ptr %0, i64 32
  %6 = load ptr, ptr %5, align 8
  %7 = getelementptr i8, ptr %6, i64 4
  %.val = load i32, ptr %7, align 4
  %8 = icmp sgt i32 %.val, 0
  br i1 %8, label %.lr.ph, label %.critedge

.lr.ph:                                           ; preds = %.preheader
  %9 = getelementptr i8, ptr %6, i64 8
  %.val13 = load ptr, ptr %9, align 8
  %wide.trip.count = zext nneg i32 %.val to i64
  br label %10

10:                                               ; preds = %.lr.ph, %20
  %indvars.iv = phi i64 [ 0, %.lr.ph ], [ %indvars.iv.next, %20 ]
  %.015 = phi i32 [ 0, %.lr.ph ], [ %.1, %20 ]
  %11 = getelementptr inbounds nuw ptr, ptr %.val13, i64 %indvars.iv
  %12 = load ptr, ptr %11, align 8
  %13 = icmp eq ptr %12, null
  br i1 %13, label %20, label %14

14:                                               ; preds = %10
  %15 = getelementptr inbounds nuw ptr, ptr %3, i64 %indvars.iv
  %16 = load ptr, ptr %15, align 8
  %17 = icmp ne ptr %16, null
  %18 = zext i1 %17 to i32
  %19 = add nsw i32 %.015, %18
  br label %20

20:                                               ; preds = %14, %10
  %.1 = phi i32 [ %.015, %10 ], [ %19, %14 ]
  %indvars.iv.next = add nuw nsw i64 %indvars.iv, 1
  %exitcond.not = icmp eq i64 %indvars.iv.next, %wide.trip.count
  br i1 %exitcond.not, label %.critedge, label %10, !llvm.loop !13

.critedge:                                        ; preds = %20, %.preheader, %1
  %.012 = phi i32 [ 0, %1 ], [ 0, %.preheader ], [ %.1, %20 ]
  ret i32 %.012
}